; Function Attrs: noinline norecurse nounwind uwtable
define internal void @_ZN8LightGBM10ColSampler9GetByNodeEPKNS_4TreeEi.omp_outlined(ptr noalias noundef readonly captures(none) %0, ptr noalias readnone captures(none) %1, ptr noundef nonnull readonly align 4 captures(none) dereferenceable(4) %2, ptr noundef readonly captures(none) %3, ptr noundef nonnull readonly align 8 captures(none) dereferenceable(8) %4, ptr noundef nonnull readonly align 8 captures(none) dereferenceable(24) %5, ptr noundef nonnull readonly align 8 captures(none) dereferenceable(24) %6) #24 {
  %8 = alloca i32, align 4
  %9 = alloca i32, align 4
  %10 = alloca i32, align 4
  %11 = alloca i32, align 4
  %12 = load i32, ptr %2, align 4, !tbaa !209
  %13 = add nsw i32 %12, -1
  %14 = icmp sgt i32 %12, 0
  br i1 %14, label %15, label %52

15:                                               ; preds = %7
  call void @llvm.lifetime.start.p0(i64 4, ptr nonnull %8) #21
  store i32 0, ptr %8, align 4, !tbaa !209
  call void @llvm.lifetime.start.p0(i64 4, ptr nonnull %9) #21
  store i32 %13, ptr %9, align 4, !tbaa !209
  call void @llvm.lifetime.start.p0(i64 4, ptr nonnull %10) #21
  store i32 1, ptr %10, align 4, !tbaa !209
  call void @llvm.lifetime.start.p0(i64 4, ptr nonnull %11) #21
  store i32 0, ptr %11, align 4, !tbaa !209
  %16 = load i32, ptr %0, align 4, !tbaa !209
  call void @__kmpc_for_static_init_4(ptr nonnull @1, i32 %16, i32 33, ptr nonnull %11, ptr nonnull %8, ptr nonnull %9, ptr nonnull %10, i32 1, i32 512)
  %17 = load i32, ptr %9, align 4, !tbaa !209
  %18 = call i32 @llvm.smin.i32(i32 %17, i32 %13)
  store i32 %18, ptr %9, align 4, !tbaa !209
  %19 = load i32, ptr %8, align 4, !tbaa !209
  %.not22 = icmp sgt i32 %19, %18
  br i1 %.not22, label %._crit_edge23, label %.preheader.lr.ph

.preheader.lr.ph:                                 ; preds = %15
  %20 = getelementptr inbounds nuw i8, ptr %3, i64 88
  br label %.preheader

.preheader:                                       ; preds = %.preheader.lr.ph, %._crit_edge
  %21 = phi i32 [ %18, %.preheader.lr.ph ], [ %51, %._crit_edge ]
  %22 = phi i32 [ %19, %.preheader.lr.ph ], [ %49, %._crit_edge ]
  %.not1920 = icmp sgt i32 %22, %21
  br i1 %.not1920, label %._crit_edge, label %.lr.ph.preheader

.lr.ph.preheader:                                 ; preds = %.preheader
  %23 = sext i32 %22 to i64
  br label %.lr.ph

.lr.ph:                                           ; preds = %.lr.ph.preheader, %.lr.ph
  %indvars.iv = phi i64 [ %23, %.lr.ph.preheader ], [ %indvars.iv.next, %.lr.ph ]
  %24 = load ptr, ptr %4, align 8, !tbaa !365
  %25 = load ptr, ptr %5, align 8, !tbaa !168
  %26 = getelementptr inbounds nuw i32, ptr %25, i64 %indvars.iv
  %27 = load i32, ptr %26, align 4, !tbaa !209
  %28 = sext i32 %27 to i64
  %29 = load ptr, ptr %24, align 8, !tbaa !168
  %30 = getelementptr inbounds nuw i32, ptr %29, i64 %28
  %31 = load i32, ptr %30, align 4, !tbaa !209
  %32 = sext i32 %31 to i64
  %33 = load ptr, ptr %20, align 8, !tbaa !168
  %34 = getelementptr inbounds nuw i32, ptr %33, i64 %32
  %35 = load i32, ptr %34, align 4, !tbaa !209
  %36 = load ptr, ptr %3, align 8, !tbaa !359
  %37 = getelementptr inbounds nuw i8, ptr %36, i64 56
  %38 = sext i32 %35 to i64
  %39 = load ptr, ptr %37, align 8, !tbaa !168
  %40 = getelementptr inbounds nuw i32, ptr %39, i64 %38
  %41 = load i32, ptr %40, align 4, !tbaa !209
  %42 = sext i32 %41 to i64
  %43 = load ptr, ptr %6, align 8, !tbaa !231
  %44 = getelementptr inbounds nuw i8, ptr %43, i64 %42
  store i8 1, ptr %44, align 1, !tbaa !232
  %indvars.iv.next = add nsw i64 %indvars.iv, 1
  %45 = load i32, ptr %9, align 4, !tbaa !209
  %46 = sext i32 %45 to i64
  %.not19.not = icmp slt i64 %indvars.iv, %46
  br i1 %.not19.not, label %.lr.ph, label %._crit_edge.loopexit

._crit_edge.loopexit:                             ; preds = %.lr.ph
  %.pre = load i32, ptr %8, align 4, !tbaa !209
  br label %._crit_edge

._crit_edge:                                      ; preds = %._crit_edge.loopexit, %.preheader
  %47 = phi i32 [ %22, %.preheader ], [ %.pre, %._crit_edge.loopexit ]
  %.lcssa = phi i32 [ %21, %.preheader ], [ %45, %._crit_edge.loopexit ]
  %48 = load i32, ptr %10, align 4, !tbaa !209
  %49 = add nsw i32 %48, %47
  store i32 %49, ptr %8, align 4, !tbaa !209
  %50 = add nsw i32 %48, %.lcssa
  %51 = call i32 @llvm.smin.i32(i32 %50, i32 %13)
  store i32 %51, ptr %9, align 4, !tbaa !209
  %.not = icmp sgt i32 %49, %51
  br i1 %.not, label %._crit_edge23, label %.preheader

._crit_edge23:                                    ; preds = %._crit_edge, %15
  call void @__kmpc_for_static_fini(ptr nonnull @1, i32 %16)
  call void @llvm.lifetime.end.p0(i64 4, ptr nonnull %11) #21
  call void @llvm.lifetime.end.p0(i64 4, ptr nonnull %10) #21
  call void @llvm.lifetime.end.p0(i64 4, ptr nonnull %9) #21
  call void @llvm.lifetime.end.p0(i64 4, ptr nonnull %8) #21
  br label %52

52:                                               ; preds = %._crit_edge23, %7
  ret void
}